target datalayout = "e-m:e-p270:32:32-p271:32:32-p272:64:64-i64:64-i128:128-f80:128-n8:16:32:64-S128"
target triple = "x86_64-pc-linux-gnu"

%struct.asdl_keyword_seq = type { i64, ptr, [1 x ptr] }
%struct._keyword = type { ptr, ptr, i32, i32, i32, i32 }

; Function Attrs: nounwind uwtable
define internal i32 @validate_keywords(ptr noundef %0, ptr noundef %1) #0 {
  %3 = alloca i32, align 4
  %4 = alloca ptr, align 8
  %5 = alloca ptr, align 8
  %6 = alloca i64, align 8
  %7 = alloca i32, align 4
  store ptr %0, ptr %4, align 8, !tbaa !31
  store ptr %1, ptr %5, align 8, !tbaa !33
  call void @llvm.lifetime.start.p0(i64 8, ptr %6) #6
  store i64 0, ptr %6, align 8, !tbaa !34
  br label %8

8:                                                ; preds = %34, %2
  %9 = load i64, ptr %6, align 8, !tbaa !34
  %10 = load ptr, ptr %5, align 8, !tbaa !33
  %11 = icmp eq ptr %10, null
  br i1 %11, label %12, label %13

12:                                               ; preds = %8
  br label %17

13:                                               ; preds = %8
  %14 = load ptr, ptr %5, align 8, !tbaa !33
  %15 = getelementptr inbounds nuw %struct.asdl_keyword_seq, ptr %14, i32 0, i32 0
  %16 = load i64, ptr %15, align 8, !tbaa !35
  br label %17

17:                                               ; preds = %13, %12
  %18 = phi i64 [ 0, %12 ], [ %16, %13 ]
  %19 = icmp slt i64 %9, %18
  br i1 %19, label %21, label %20

20:                                               ; preds = %17
  store i32 2, ptr %7, align 4
  br label %37

21:                                               ; preds = %17
  %22 = load ptr, ptr %4, align 8, !tbaa !31
  %23 = load ptr, ptr %5, align 8, !tbaa !33
  %24 = getelementptr inbounds nuw %struct.asdl_keyword_seq, ptr %23, i32 0, i32 2
  %25 = load i64, ptr %6, align 8, !tbaa !34
  %26 = getelementptr [1 x ptr], ptr %24, i64 0, i64 %25
  %27 = load ptr, ptr %26, align 8, !tbaa !100
  %28 = getelementptr inbounds nuw %struct._keyword, ptr %27, i32 0, i32 1
  %29 = load ptr, ptr %28, align 8, !tbaa !102
  %30 = call i32 @validate_expr(ptr noundef %22, ptr noundef %29, i32 noundef 1)
  %31 = icmp ne i32 %30, 0
  br i1 %31, label %33, label %32

32:                                               ; preds = %21
  store i32 0, ptr %3, align 4
  store i32 1, ptr %7, align 4
  br label %37

33:                                               ; preds = %21
  br label %34

34:                                               ; preds = %33
  %35 = load i64, ptr %6, align 8, !tbaa !34
  %36 = add i64 %35, 1
  store i64 %36, ptr %6, align 8, !tbaa !34
  br label %8, !llvm.loop !104

37:                                               ; preds = %32, %20
  call void @llvm.lifetime.end.p0(i64 8, ptr %6) #6
  %38 = load i32, ptr %7, align 4
  switch i32 %38, label %42 [
    i32 2, label %39
    i32 1, label %40
  ]

39:                                               ; preds = %37
  store i32 1, ptr %3, align 4
  br label %40

40:                                               ; preds = %39, %37
  %41 = load i32, ptr %3, align 4
  ret i32 %41

42:                                               ; preds = %37
  unreachable
}