; Function Attrs: nounwind uwtable
define internal fastcc noundef range(i32 0, 2) i32 @validate_keywords(ptr noundef nonnull captures(none) %0, ptr noundef readonly %1) unnamed_addr #0 {
  %3 = getelementptr inbounds nuw i8, ptr %1, i64 16
  %4 = icmp eq ptr %1, null
  br i1 %4, label %.split13.us, label %.split

.split:                                           ; preds = %2, %6
  %.08 = phi i64 [ %12, %6 ], [ 0, %2 ]
  %5 = load i64, ptr %1, align 8, !tbaa !27
  %.not11.not = icmp slt i64 %.08, %5
  br i1 %.not11.not, label %6, label %.split13.us

6:                                                ; preds = %.split
  %7 = getelementptr [1 x ptr], ptr %3, i64 0, i64 %.08
  %8 = load ptr, ptr %7, align 8, !tbaa !44
  %9 = getelementptr inbounds nuw i8, ptr %8, i64 8
  %10 = load ptr, ptr %9, align 8, !tbaa !46
  %11 = tail call fastcc i32 @validate_expr(ptr noundef %0, ptr noundef %10, i32 noundef 1)
  %.not = icmp eq i32 %11, 0
  %12 = add nuw nsw i64 %.08, 1
  br i1 %.not, label %.split13.us, label %.split, !llvm.loop !48

.split13.us:                                      ; preds = %.split, %6, %2
  %.us-phi = phi i32 [ 1, %2 ], [ 0, %6 ], [ 1, %.split ]
  ret i32 %.us-phi
}